; Function Attrs: mustprogress uwtable
define void @_ZN6google8protobuf7Message8CopyFromERKS1_(ptr noundef nonnull align 8 dereferenceable(16) %this, ptr noundef nonnull align 8 dereferenceable(16) %from) local_unnamed_addr #3 align 2 personality ptr @__gxx_personality_v0 {
entry:
  %ref.tmp16 = alloca %"class.absl::lts_20230802::log_internal::LogMessageFatal", align 8
  %cmp = icmp eq ptr %from, %this
  br i1 %cmp, label %if.end33, label %if.end

if.end:                                           ; preds = %entry
  %vtable = load ptr, ptr %this, align 8
  %vfn = getelementptr inbounds i8, ptr %vtable, i64 64
  %0 = load ptr, ptr %vfn, align 8
  %call = tail call noundef ptr %0(ptr noundef nonnull align 8 dereferenceable(16) %this)
  %vtable2 = load ptr, ptr %from, align 8
  %vfn3 = getelementptr inbounds i8, ptr %vtable2, i64 64
  %1 = load ptr, ptr %vfn3, align 8
  %call4 = tail call noundef ptr %1(ptr noundef nonnull align 8 dereferenceable(16) %from)
  %cmp5.not = icmp ne ptr %call4, null
  %cmp6 = icmp eq ptr %call4, %call
  %or.cond = and i1 %cmp5.not, %cmp6
  %vtable8 = load ptr, ptr %this, align 8
  br i1 %or.cond, label %if.then7, label %if.else

if.then7:                                         ; preds = %if.end
  %vfn9 = getelementptr inbounds i8, ptr %vtable8, i64 24
  %2 = load ptr, ptr %vfn9, align 8
  tail call void %2(ptr noundef nonnull align 8 dereferenceable(16) %this)
  %merge_to_from = getelementptr inbounds i8, ptr %call, i64 16
  %3 = load ptr, ptr %merge_to_from, align 8
  tail call void %3(ptr noundef nonnull align 8 dereferenceable(16) %this, ptr noundef nonnull align 8 dereferenceable(16) %from)
  br label %if.end33

if.else:                                          ; preds = %if.end
  %vfn.i = getelementptr inbounds i8, ptr %vtable8, i64 80
  %4 = load ptr, ptr %vfn.i, align 8
  %call.i = tail call { ptr, ptr } %4(ptr noundef nonnull align 8 dereferenceable(16) %this)
  %5 = extractvalue { ptr, ptr } %call.i, 0
  %vtable.i9 = load ptr, ptr %from, align 8
  %vfn.i10 = getelementptr inbounds i8, ptr %vtable.i9, i64 80
  %6 = load ptr, ptr %vfn.i10, align 8
  %call.i11 = tail call { ptr, ptr } %6(ptr noundef nonnull align 8 dereferenceable(16) %from)
  %7 = extractvalue { ptr, ptr } %call.i11, 0
  %cmp.i = icmp eq ptr %7, %5
  br i1 %cmp.i, label %while.end, label %while.body

while.body:                                       ; preds = %if.else
  %call.i12 = tail call noundef nonnull ptr @_ZN4absl12lts_2023080212log_internal17MakeCheckOpStringIPKvS4_EEPNSt7__cxx1112basic_stringIcSt11char_traitsIcESaIcEEET_T0_PKc(ptr noundef %7, ptr noundef %5, ptr noundef nonnull @.str)
  %call17 = tail call { i64, ptr } @_ZNKSt7__cxx1112basic_stringIcSt11char_traitsIcESaIcEEcvSt17basic_string_viewIcS2_EEv(ptr noundef nonnull align 8 dereferenceable(32) %call.i12) #29
  %8 = extractvalue { i64, ptr } %call17, 0
  %9 = extractvalue { i64, ptr } %call17, 1
  call void @_ZN4absl12lts_2023080212log_internal15LogMessageFatalC1EPKciSt17basic_string_viewIcSt11char_traitsIcEE(ptr noundef nonnull align 8 dereferenceable(16) %ref.tmp16, ptr noundef nonnull @.str.1, i32 noundef 98, i64 %8, ptr %9) #30
  invoke void @_ZN4absl12lts_2023080212log_internal10LogMessage19CopyToEncodedBufferILNS2_10StringTypeE0EEEvSt17basic_string_viewIcSt11char_traitsIcEE(ptr noundef nonnull align 8 dereferenceable(16) %ref.tmp16, i64 58, ptr nonnull @.str.2)
          to label %invoke.cont19 unwind label %lpad

invoke.cont19:                                    ; preds = %while.body
  %all_names_.i = getelementptr inbounds i8, ptr %5, i64 8
  %10 = load ptr, ptr %all_names_.i, align 8
  %arrayidx.i = getelementptr inbounds i8, ptr %10, i64 32
  %call24 = invoke noundef nonnull align 8 dereferenceable(16) ptr @_ZN4absl12lts_2023080212log_internal10LogMessagelsERKNSt7__cxx1112basic_stringIcSt11char_traitsIcESaIcEEE(ptr noundef nonnull align 8 dereferenceable(16) %ref.tmp16, ptr noundef nonnull align 8 dereferenceable(32) %arrayidx.i)
          to label %invoke.cont23 unwind label %lpad

invoke.cont23:                                    ; preds = %invoke.cont19
  invoke void @_ZN4absl12lts_2023080212log_internal10LogMessage19CopyToEncodedBufferILNS2_10StringTypeE0EEEvSt17basic_string_viewIcSt11char_traitsIcEE(ptr noundef nonnull align 8 dereferenceable(16) %call24, i64 8, ptr nonnull @.str.3)
          to label %invoke.cont25 unwind label %lpad

invoke.cont25:                                    ; preds = %invoke.cont23
  %vtable.i14 = load ptr, ptr %from, align 8
  %vfn.i15 = getelementptr inbounds i8, ptr %vtable.i14, i64 80
  %11 = load ptr, ptr %vfn.i15, align 8
  %call.i1617 = invoke { ptr, ptr } %11(ptr noundef nonnull align 8 dereferenceable(16) %from)
          to label %invoke.cont27 unwind label %lpad

invoke.cont27:                                    ; preds = %invoke.cont25
  %12 = extractvalue { ptr, ptr } %call.i1617, 0
  %all_names_.i18 = getelementptr inbounds i8, ptr %12, i64 8
  %13 = load ptr, ptr %all_names_.i18, align 8
  %arrayidx.i19 = getelementptr inbounds i8, ptr %13, i64 32
  %call32 = invoke noundef nonnull align 8 dereferenceable(16) ptr @_ZN4absl12lts_2023080212log_internal10LogMessagelsERKNSt7__cxx1112basic_stringIcSt11char_traitsIcESaIcEEE(ptr noundef nonnull align 8 dereferenceable(16) %call24, ptr noundef nonnull align 8 dereferenceable(32) %arrayidx.i19)
          to label %invoke.cont31 unwind label %lpad

invoke.cont31:                                    ; preds = %invoke.cont27
  call void @_ZN4absl12lts_2023080212log_internal15LogMessageFatalD1Ev(ptr noundef nonnull align 8 dereferenceable(16) %ref.tmp16) #28
  unreachable

lpad:                                             ; preds = %invoke.cont25, %invoke.cont23, %while.body, %invoke.cont27, %invoke.cont19
  %14 = landingpad { ptr, i32 }
          cleanup
  call void @_ZN4absl12lts_2023080212log_internal15LogMessageFatalD1Ev(ptr noundef nonnull align 8 dereferenceable(16) %ref.tmp16) #28
  unreachable

while.end:                                        ; preds = %if.else
  tail call void @_ZN6google8protobuf8internal13ReflectionOps4CopyERKNS0_7MessageEPS3_(ptr noundef nonnull align 8 dereferenceable(16) %from, ptr noundef nonnull %this)
  br label %if.end33

if.end33:                                         ; preds = %entry, %while.end, %if.then7
  ret void
}